; Function Attrs: nounwind uwtable
define internal fastcc range(i32 -10624, 1) i32 @x509_info_ext_key_usage(ptr noundef nonnull captures(none) %0, ptr noundef nonnull captures(none) %1, ptr noundef nonnull %2) unnamed_addr #0 {
  %4 = alloca ptr, align 8
  call void @llvm.lifetime.start.p0(i64 8, ptr nonnull %4) #17
  %5 = load i64, ptr %1, align 8, !tbaa !25
  %6 = load ptr, ptr %0, align 8, !tbaa !24
  br label %7

7:                                                ; preds = %3, %16
  %.033 = phi ptr [ @.str.27, %3 ], [ @.str.30, %16 ]
  %.02032 = phi ptr [ %2, %3 ], [ %20, %16 ]
  %.02131 = phi ptr [ %6, %3 ], [ %18, %16 ]
  %.02230 = phi i64 [ %5, %3 ], [ %17, %16 ]
  %8 = call i32 @mbedtls_oid_get_extended_key_usage(ptr noundef nonnull %.02032, ptr noundef nonnull %4) #17
  %.not26 = icmp eq i32 %8, 0
  br i1 %.not26, label %._crit_edge, label %9

._crit_edge:                                      ; preds = %7
  %.pre = load ptr, ptr %4, align 8, !tbaa !24
  br label %10

9:                                                ; preds = %7
  store ptr @.str.28, ptr %4, align 8, !tbaa !24
  br label %10

10:                                               ; preds = %._crit_edge, %9
  %11 = phi ptr [ %.pre, %._crit_edge ], [ @.str.28, %9 ]
  %12 = call i32 (ptr, i64, ptr, ...) @snprintf(ptr noundef %.02131, i64 noundef %.02230, ptr noundef nonnull @.str.29, ptr noundef nonnull %.033, ptr noundef %11) #17
  %13 = icmp slt i32 %12, 0
  br i1 %13, label %.loopexit, label %14

14:                                               ; preds = %10
  %15 = zext nneg i32 %12 to i64
  %.not27 = icmp ugt i64 %.02230, %15
  br i1 %.not27, label %16, label %.loopexit

16:                                               ; preds = %14
  %17 = sub nuw i64 %.02230, %15
  %18 = getelementptr inbounds nuw i8, ptr %.02131, i64 %15
  %19 = getelementptr inbounds nuw i8, ptr %.02032, i64 24
  %20 = load ptr, ptr %19, align 8, !tbaa !72
  %.not = icmp eq ptr %20, null
  br i1 %.not, label %21, label %7, !llvm.loop !73

21:                                               ; preds = %16
  store i64 %17, ptr %1, align 8, !tbaa !25
  store ptr %18, ptr %0, align 8, !tbaa !24
  br label %.loopexit

.loopexit:                                        ; preds = %10, %14, %21
  %.023 = phi i32 [ 0, %21 ], [ -10624, %14 ], [ -10624, %10 ]
  call void @llvm.lifetime.end.p0(i64 8, ptr nonnull %4) #17
  ret i32 %.023
}